target datalayout = "e-m:e-p270:32:32-p271:32:32-p272:64:64-i64:64-i128:128-f80:128-n8:16:32:64-S128"
target triple = "x86_64-pc-linux-gnu"

; Function Attrs: null_pointer_is_valid sspstrong uwtable
define hidden i32 @tvb_get_ipv4_addr_with_prefix_len(ptr noundef %0, i32 noundef %1, ptr noundef %2, i32 noundef %3) #0 {
  %5 = alloca i32, align 4
  %6 = alloca ptr, align 8
  %7 = alloca i32, align 4
  %8 = alloca ptr, align 8
  %9 = alloca i32, align 4
  %10 = alloca i8, align 1
  %11 = alloca i32, align 4
  store ptr %0, ptr %6, align 8
  store i32 %1, ptr %7, align 4
  store ptr %2, ptr %8, align 8
  store i32 %3, ptr %9, align 4
  call void @llvm.lifetime.start.p0(i64 1, ptr %10) #16
  %12 = load i32, ptr %9, align 4
  %13 = icmp ugt i32 %12, 32
  br i1 %13, label %14, label %15

14:                                               ; preds = %4
  store i32 -1, ptr %5, align 4
  store i32 1, ptr %11, align 4
  br label %48

15:                                               ; preds = %4
  %16 = load i32, ptr %9, align 4
  %17 = add i32 %16, 7
  %18 = udiv i32 %17, 8
  %19 = trunc i32 %18 to i8
  store i8 %19, ptr %10, align 1
  %20 = load ptr, ptr %8, align 8
  store i32 0, ptr %20, align 4
  %21 = load ptr, ptr %6, align 8
  %22 = load ptr, ptr %8, align 8
  %23 = load i32, ptr %7, align 4
  %24 = load i8, ptr %10, align 1
  %25 = zext i8 %24 to i64
  %26 = call ptr @tvb_memcpy(ptr noundef %21, ptr noundef %22, i32 noundef %23, i64 noundef %25)
  %27 = load i32, ptr %9, align 4
  %28 = urem i32 %27, 8
  %29 = icmp ne i32 %28, 0
  br i1 %29, label %30, label %45

30:                                               ; preds = %15
  %31 = load i32, ptr %9, align 4
  %32 = urem i32 %31, 8
  %33 = ashr i32 65280, %32
  %34 = and i32 %33, 255
  %35 = load ptr, ptr %8, align 8
  %36 = load i8, ptr %10, align 1
  %37 = zext i8 %36 to i32
  %38 = sub i32 %37, 1
  %39 = sext i32 %38 to i64
  %40 = getelementptr i8, ptr %35, i64 %39
  %41 = load i8, ptr %40, align 1
  %42 = zext i8 %41 to i32
  %43 = and i32 %42, %34
  %44 = trunc i32 %43 to i8
  store i8 %44, ptr %40, align 1
  br label %45

45:                                               ; preds = %30, %15
  %46 = load i8, ptr %10, align 1
  %47 = zext i8 %46 to i32
  store i32 %47, ptr %5, align 4
  store i32 1, ptr %11, align 4
  br label %48

48:                                               ; preds = %45, %14
  call void @llvm.lifetime.end.p0(i64 1, ptr %10) #16
  %49 = load i32, ptr %5, align 4
  ret i32 %49
}