; Function Attrs: null_pointer_is_valid sspstrong uwtable
define hidden range(i32 -1, 5) i32 @tvb_get_ipv4_addr_with_prefix_len(ptr noundef %0, i32 noundef %1, ptr noundef %2, i32 noundef %3) local_unnamed_addr #0 {
  %5 = icmp ugt i32 %3, 32
  br i1 %5, label %19, label %6

6:                                                ; preds = %4
  %7 = add nuw nsw i32 %3, 7
  %8 = lshr i32 %7, 3
  store i32 0, ptr %2, align 4
  %9 = zext nneg i32 %8 to i64
  %10 = tail call ptr @tvb_memcpy(ptr noundef %0, ptr noundef %2, i32 noundef %1, i64 noundef %9)
  %11 = and i32 %3, 7
  %.not = icmp eq i32 %11, 0
  br i1 %.not, label %19, label %12

12:                                               ; preds = %6
  %13 = lshr exact i32 65280, %11
  %14 = getelementptr i8, ptr %2, i64 %9
  %15 = getelementptr i8, ptr %14, i64 -1
  %16 = load i8, ptr %15, align 1
  %17 = trunc i32 %13 to i8
  %18 = and i8 %16, %17
  store i8 %18, ptr %15, align 1
  br label %19

19:                                               ; preds = %6, %12, %4
  %.0 = phi i32 [ -1, %4 ], [ %8, %12 ], [ %8, %6 ]
  ret i32 %.0
}